; Function Attrs: mustprogress nofree norecurse nosync nounwind willreturn memory(argmem: read) uwtable
define hidden noundef zeroext i1 @_ZN20RangeCheckEliminator5Bound9has_upperEv(ptr nocapture noundef nonnull readonly align 8 dereferenceable(32) %0) local_unnamed_addr #2 align 2 {
  %2 = getelementptr inbounds i8, ptr %0, i64 8
  %3 = load ptr, ptr %2, align 8
  %.not = icmp ne ptr %3, null
  %4 = load i32, ptr %0, align 8
  %5 = icmp ne i32 %4, 2147483647
  %6 = select i1 %.not, i1 true, i1 %5
  ret i1 %6
}